Certificate:
    Data:
        Version: 3 (0x2)
        Serial Number: 1 (0x1)
        Signature Algorithm: sha256WithRSAEncryption
        Issuer: C=BA, ST=RS, L=Banja Luka, O=ETF, CN=Aleksandra Kostic/emailAddress=ca@mail.com
        Validity
            Not Before: Sep 26 21:38:55 2021 GMT
            Not After : Sep 26 21:38:55 2022 GMT
        Subject: C=BA, ST=RS, O=ETF, L=Banja Luka, CN=Korisnik1/emailAddress=korisnik1@gmail.com
        Subject Public Key Info:
            Public Key Algorithm: rsaEncryption
                RSA Public-Key: (2048 bit)
                Modulus:
                    00:d6:bd:15:1c:ac:1f:18:a0:83:6b:9b:b4:ee:3d:
                    5f:99:4c:8c:6d:8f:f3:c8:d7:3b:19:e2:29:d2:f3:
                    c3:81:26:33:e4:bd:67:e2:b0:0e:21:30:11:dd:14:
                    c8:b4:82:8e:93:e8:41:3f:9f:bb:45:3c:a3:ff:bd:
                    79:7f:c8:4e:b0:c5:71:1b:2b:11:9a:8a:6f:79:3b:
                    40:29:97:35:cc:9c:f4:85:2e:04:c1:aa:5f:65:d3:
                    30:2a:d5:5b:a0:7c:c6:42:c4:1e:5c:e3:45:8b:0f:
                    78:f3:05:e0:d2:0f:75:13:5b:d7:75:b1:cf:bd:51:
                    a8:19:e9:5f:b0:0a:4e:b0:66:43:0d:a4:1b:54:07:
                    c3:30:62:70:94:fb:f1:d2:3f:2d:6b:bc:7a:6c:5a:
                    ea:95:c2:e1:9c:64:ad:10:2f:0f:19:c6:b5:ed:7c:
                    a6:c0:60:72:b8:32:4b:c9:28:b7:e6:0f:74:da:0d:
                    31:1f:dd:23:5d:5a:15:76:f5:6c:60:fc:26:2c:c7:
                    d6:6c:dd:3e:d0:07:04:eb:d8:6b:65:1f:69:85:af:
                    a7:16:f8:03:fe:df:ce:2b:e1:6c:07:16:a9:0d:68:
                    43:a8:aa:6f:f7:76:ff:cc:31:19:d5:ee:cc:da:e6:
                    6c:d7:cc:bd:83:6f:b0:2a:fc:39:e5:03:39:e4:85:
                    24:a5
                Exponent: 65537 (0x10001)
        X509v3 extensions:
            X509v3 Basic Constraints: 
                CA:FALSE
            X509v3 Key Usage: 
                Digital Signature, Non Repudiation, Key Encipherment, Data Encipherment, Key Agreement
            Netscape Comment: 
                OpenSSL Generated Certificate
            X509v3 Subject Key Identifier: 
                E3:1B:88:A9:DA:DA:CF:9C:AB:5C:17:13:57:1F:0D:65:36:5A:36:53
            X509v3 Authority Key Identifier: 
                keyid:7A:4C:B6:04:90:5B:2B:E7:8D:08:3D:13:F7:90:C4:08:AC:01:4E:5C

    Signature Algorithm: sha256WithRSAEncryption
         b1:e7:09:7b:3d:ef:fa:7b:12:c7:0c:98:f1:a3:81:6d:d7:e1:
         ea:e3:22:6f:af:76:b5:f1:f9:52:a3:cd:9a:f7:bc:28:07:1d:
         5d:c3:c3:82:c1:75:74:f8:83:9e:1b:9f:0b:1a:ee:8e:b0:94:
         3e:c3:24:5b:55:32:f6:b5:b8:37:8e:03:80:26:8e:6e:55:ce:
         f6:61:24:cf:80:a5:18:00:4c:8d:fa:0a:bb:8c:95:5b:92:7c:
         d8:1a:43:a4:37:7b:33:fc:72:bb:8b:cd:f6:2c:35:a1:48:b4:
         00:b3:93:da:3d:95:d4:17:b9:65:43:31:07:80:5f:49:10:55:
         f7:63:7f:95:fe:07:2c:b1:bc:e8:d2:f9:37:61:49:f4:04:07:
         08:f2:f0:cb:2c:4c:1d:0c:86:fe:a6:bd:45:50:60:c0:be:7a:
         4a:4b:6f:b7:21:ad:7a:5c:92:44:3d:4a:0e:08:20:69:f6:d3:
         e1:f3:3e:2c:01:ae:68:4e:eb:50:d8:9f:9a:f7:de:f6:a4:8c:
         eb:c8:33:0f:89:83:2b:03:70:54:3c:90:d7:78:93:97:77:f6:
         68:73:3b:76:8b:3b:6e:14:82:5e:1f:65:98:ef:4c:aa:a4:3f:
         2e:66:6b:28:54:31:fc:75:11:eb:0e:b3:22:b6:15:88:46:0f:
         52:f9:6c:d3
-----BEGIN CERTIFICATE-----
MIID7zCCAtegAwIBAgIBATANBgkqhkiG9w0BAQsFADB1MQswCQYDVQQGEwJCQTEL
MAkGA1UECAwCUlMxEzARBgNVBAcMCkJhbmphIEx1a2ExDDAKBgNVBAoMA0VURjEa
MBgGA1UEAwwRQWxla3NhbmRyYSBLb3N0aWMxGjAYBgkqhkiG9w0BCQEWC2NhQG1h
aWwuY29tMB4XDTIxMDkyNjIxMzg1NVoXDTIyMDkyNjIxMzg1NVowdTELMAkGA1UE
BhMCQkExCzAJBgNVBAgMAlJTMQwwCgYDVQQKDANFVEYxEzARBgNVBAcMCkJhbmph
IEx1a2ExEjAQBgNVBAMMCUtvcmlzbmlrMTEiMCAGCSqGSIb3DQEJARYTa29yaXNu
aWsxQGdtYWlsLmNvbTCCASIwDQYJKoZIhvcNAQEBBQADggEPADCCAQoCggEBANa9
FRysHxigg2ubtO49X5lMjG2P88jXOxniKdLzw4EmM+S9Z+KwDiEwEd0UyLSCjpPo
QT+fu0U8o/+9eX/ITrDFcRsrEZqKb3k7QCmXNcyc9IUuBMGqX2XTMCrVW6B8xkLE
HlzjRYsPePMF4NIPdRNb13Wxz71RqBnpX7AKTrBmQw2kG1QHwzBicJT78dI/LWu8
emxa6pXC4ZxkrRAvDxnGte18psBgcrgyS8kot+YPdNoNMR/dI11aFXb1bGD8JizH
1mzdPtAHBOvYa2UfaYWvpxb4A/7fzivhbAcWqQ1oQ6iqb/d2/8wxGdXuzNrmbNfM
vYNvsCr8OeUDOeSFJKUCAwEAAaOBiTCBhjAJBgNVHRMEAjAAMAsGA1UdDwQEAwID
+DAsBglghkgBhvhCAQ0EHxYdT3BlblNTTCBHZW5lcmF0ZWQgQ2VydGlmaWNhdGUw
HQYDVR0OBBYEFOMbiKna2s+cq1wXE1cfDWU2WjZTMB8GA1UdIwQYMBaAFHpMtgSQ
WyvnjQg9E/eQxAisAU5cMA0GCSqGSIb3DQEBCwUAA4IBAQCx5wl7Pe/6exLHDJjx
o4Ft1+Hq4yJvr3a18flSo82a97woBx1dw8OCwXV0+IOeG58LGu6OsJQ+wyRbVTL2
tbg3jgOAJo5uVc72YSTPgKUYAEyN+gq7jJVbknzYGkOkN3sz/HK7i832LDWhSLQA
s5PaPZXUF7llQzEHgF9JEFX3Y3+V/gcssbzo0vk3YUn0BAcI8vDLLEwdDIb+pr1F
UGDAvnpKS2+3Ia16XJJEPUoOCCBp9tPh8z4sAa5oTutQ2J+a9972pIzryDMPiYMr
A3BUPJDXeJOXd/Zoczt2iztuFIJeH2WY70yqpD8uZmsoVDH8dRHrDrMithWIRg9S
+WzT
-----END CERTIFICATE-----
