Certificate:
    Data:
        Version: 3 (0x2)
        Serial Number: 4 (0x4)
        Signature Algorithm: sha256WithRSAEncryption
        Issuer: C=BA, ST=RS, L=Banja Luka, O=ETF, CN=Aleksandra Kostic/emailAddress=ca@mail.com
        Validity
            Not Before: Oct  3 21:15:04 2021 GMT
            Not After : Oct  3 21:15:04 2022 GMT
        Subject: C=BA, ST=RS, O=ETF, L=Banja Luka, CN=Korisnik4/emailAddress=korisnik4@mail.com
        Subject Public Key Info:
            Public Key Algorithm: rsaEncryption
                RSA Public-Key: (2048 bit)
                Modulus:
                    00:ba:be:d9:b6:fd:2f:af:f5:eb:c6:e9:83:6f:dd:
                    0f:29:48:75:55:ea:1e:ab:93:ff:1e:0a:e7:f8:19:
                    3a:7d:df:d8:f2:04:3c:45:25:bf:10:db:87:f6:3e:
                    ac:47:77:62:13:f3:be:93:9b:70:ac:14:00:2d:59:
                    2c:ff:ad:96:73:96:6a:3c:67:f8:8d:b4:03:07:b1:
                    c1:92:fe:55:1d:18:11:50:4f:6c:0f:df:54:36:0d:
                    36:fc:e2:4a:23:8e:f6:07:00:b7:17:55:33:25:49:
                    24:c6:74:23:e9:d4:0c:a7:63:25:d3:d0:23:54:5a:
                    d8:38:29:80:14:f6:b0:5a:de:99:2f:eb:f2:05:9c:
                    af:bc:a7:02:8c:f7:65:fe:6e:63:dc:6e:a5:27:66:
                    53:b7:48:f6:c8:6d:d0:4a:e3:77:4b:68:4a:67:3c:
                    41:df:8d:3e:e6:62:cd:c8:62:c5:f9:38:9d:69:ed:
                    7b:d6:1f:05:5c:8d:98:55:32:4f:87:03:df:b1:48:
                    2a:34:67:f0:11:e0:68:4d:5b:0d:cd:38:f8:29:10:
                    ec:68:7e:d9:81:5a:35:45:bd:81:44:b4:2a:ad:51:
                    75:91:0a:66:57:e4:89:12:63:5c:d3:db:ed:93:9b:
                    96:7d:26:56:26:7a:7b:7d:dc:9e:de:15:bf:7e:77:
                    7c:77
                Exponent: 65537 (0x10001)
        X509v3 extensions:
            X509v3 Basic Constraints: 
                CA:FALSE
            X509v3 Key Usage: 
                Digital Signature, Non Repudiation, Key Encipherment, Data Encipherment, Key Agreement
            Netscape Comment: 
                OpenSSL Generated Certificate
            X509v3 Subject Key Identifier: 
                47:57:99:E6:5D:7A:D5:65:42:02:27:8D:C3:F8:78:39:76:A9:92:5A
            X509v3 Authority Key Identifier: 
                keyid:7A:4C:B6:04:90:5B:2B:E7:8D:08:3D:13:F7:90:C4:08:AC:01:4E:5C

    Signature Algorithm: sha256WithRSAEncryption
         c3:4d:d9:c6:44:c0:4c:d0:41:47:96:e9:10:6a:b9:5b:97:fd:
         9a:14:1b:65:ed:a0:54:09:8e:e2:9b:ef:aa:84:37:67:19:d4:
         d0:38:4e:90:12:9f:0c:d9:2f:d0:17:e1:1b:dd:a2:e1:97:a2:
         ae:b6:f5:bc:e3:10:9d:3d:48:fb:fa:aa:85:9f:85:93:35:2e:
         ef:15:1d:ea:1e:b5:85:48:58:ba:6e:b5:98:65:4a:64:90:f9:
         fc:ac:2e:57:f4:69:c2:ac:a9:3f:cd:ec:ae:d0:56:3f:21:45:
         c6:94:f4:40:f3:6d:7f:ef:48:67:34:3c:d2:4f:cb:60:2a:0f:
         ca:f0:a9:4b:c6:51:42:26:f5:87:61:75:de:78:f4:26:75:21:
         38:7c:97:e6:5c:b7:e0:c6:bb:88:e8:9b:12:9e:8d:87:6a:e7:
         e0:ea:13:c9:0e:9a:6a:9a:06:0c:0c:8e:bd:6b:f4:98:3e:c4:
         e2:9d:89:da:b5:ab:e4:13:fe:97:6b:0a:20:49:7d:15:f7:31:
         c5:04:a6:41:ec:08:12:fd:f2:43:66:1a:00:d8:08:37:43:fb:
         34:9e:c8:cb:b2:7d:81:82:41:f4:b9:c8:51:a9:42:4c:f2:dc:
         84:60:4e:6d:e9:4e:3c:69:5e:96:28:f9:0b:73:3d:96:94:23:
         15:82:a3:30
-----BEGIN CERTIFICATE-----
MIID7jCCAtagAwIBAgIBBDANBgkqhkiG9w0BAQsFADB1MQswCQYDVQQGEwJCQTEL
MAkGA1UECAwCUlMxEzARBgNVBAcMCkJhbmphIEx1a2ExDDAKBgNVBAoMA0VURjEa
MBgGA1UEAwwRQWxla3NhbmRyYSBLb3N0aWMxGjAYBgkqhkiG9w0BCQEWC2NhQG1h
aWwuY29tMB4XDTIxMTAwMzIxMTUwNFoXDTIyMTAwMzIxMTUwNFowdDELMAkGA1UE
BhMCQkExCzAJBgNVBAgMAlJTMQwwCgYDVQQKDANFVEYxEzARBgNVBAcMCkJhbmph
IEx1a2ExEjAQBgNVBAMMCUtvcmlzbmlrNDEhMB8GCSqGSIb3DQEJARYSa29yaXNu
aWs0QG1haWwuY29tMIIBIjANBgkqhkiG9w0BAQEFAAOCAQ8AMIIBCgKCAQEAur7Z
tv0vr/XrxumDb90PKUh1Veoeq5P/Hgrn+Bk6fd/Y8gQ8RSW/ENuH9j6sR3diE/O+
k5twrBQALVks/62Wc5ZqPGf4jbQDB7HBkv5VHRgRUE9sD99UNg02/OJKI472BwC3
F1UzJUkkxnQj6dQMp2Ml09AjVFrYOCmAFPawWt6ZL+vyBZyvvKcCjPdl/m5j3G6l
J2ZTt0j2yG3QSuN3S2hKZzxB340+5mLNyGLF+Tidae171h8FXI2YVTJPhwPfsUgq
NGfwEeBoTVsNzTj4KRDsaH7ZgVo1Rb2BRLQqrVF1kQpmV+SJEmNc09vtk5uWfSZW
Jnp7fdye3hW/fnd8dwIDAQABo4GJMIGGMAkGA1UdEwQCMAAwCwYDVR0PBAQDAgP4
MCwGCWCGSAGG+EIBDQQfFh1PcGVuU1NMIEdlbmVyYXRlZCBDZXJ0aWZpY2F0ZTAd
BgNVHQ4EFgQUR1eZ5l161WVCAieNw/h4OXapklowHwYDVR0jBBgwFoAUeky2BJBb
K+eNCD0T95DECKwBTlwwDQYJKoZIhvcNAQELBQADggEBAMNN2cZEwEzQQUeW6RBq
uVuX/ZoUG2XtoFQJjuKb76qEN2cZ1NA4TpASnwzZL9AX4RvdouGXoq629bzjEJ09
SPv6qoWfhZM1Lu8VHeoetYVIWLputZhlSmSQ+fysLlf0acKsqT/N7K7QVj8hRcaU
9EDzbX/vSGc0PNJPy2AqD8rwqUvGUUIm9Ydhdd549CZ1ITh8l+Zct+DGu4jomxKe
jYdq5+DqE8kOmmqaBgwMjr1r9Jg+xOKdidq1q+QT/pdrCiBJfRX3McUEpkHsCBL9
8kNmGgDYCDdD+zSeyMuyfYGCQfS5yFGpQkzy3IRgTm3pTjxpXpYo+QtzPZaUIxWC
ozA=
-----END CERTIFICATE-----
